; Function Attrs: null_pointer_is_valid sspstrong uwtable
define internal noalias ptr @dccp_build_filter(ptr noundef %0, ptr readnone captures(none) %1) #1 {
  %3 = getelementptr inbounds nuw i8, ptr %0, i64 160
  %4 = load i32, ptr %3, align 8
  switch i32 %4, label %.thread [
    i32 2, label %5
    i32 3, label %9
  ]

5:                                                ; preds = %2
  %6 = getelementptr inbounds nuw i8, ptr %0, i64 184
  %7 = load i32, ptr %6, align 8
  %8 = icmp eq i32 %7, 2
  br i1 %8, label %.thread.sink.split, label %.thread

9:                                                ; preds = %2
  %10 = getelementptr inbounds nuw i8, ptr %0, i64 184
  %11 = load i32, ptr %10, align 8
  %12 = icmp eq i32 %11, 3
  br i1 %12, label %.thread.sink.split, label %.thread

.thread.sink.split:                               ; preds = %9, %5
  %.sink23 = phi ptr [ %6, %5 ], [ %10, %9 ]
  %.str.278.sink = phi ptr [ @.str.277, %5 ], [ @.str.278, %9 ]
  %13 = getelementptr inbounds nuw i8, ptr %0, i64 408
  %14 = load ptr, ptr %13, align 8
  %15 = tail call ptr @address_to_str(ptr noundef %14, ptr noundef nonnull %3)
  %16 = load ptr, ptr %13, align 8
  %17 = tail call ptr @address_to_str(ptr noundef %16, ptr noundef nonnull %.sink23)
  %18 = getelementptr inbounds nuw i8, ptr %0, i64 284
  %19 = load i32, ptr %18, align 4
  %20 = getelementptr inbounds nuw i8, ptr %0, i64 288
  %21 = load i32, ptr %20, align 8
  %22 = tail call noalias ptr (ptr, ptr, ...) @wmem_strdup_printf(ptr noundef null, ptr noundef nonnull %.str.278.sink, ptr noundef %15, ptr noundef %17, i32 noundef %19, i32 noundef %21)
  br label %.thread

.thread:                                          ; preds = %.thread.sink.split, %2, %5, %9
  %.0 = phi ptr [ null, %9 ], [ null, %5 ], [ null, %2 ], [ %22, %.thread.sink.split ]
  ret ptr %.0
}